target datalayout = "e-m:e-p270:32:32-p271:32:32-p272:64:64-i64:64-i128:128-f80:128-n8:16:32:64-S128"
target triple = "x86_64-pc-linux-gnu"

%struct.Curl_easy = type { i32, i64, i64, ptr, %struct.Curl_llist_node, %struct.Curl_llist_node, i32, i32, %struct.Curl_message, %struct.easy_pollset, %struct.Names, ptr, ptr, ptr, ptr, %struct.SingleRequest, %struct.UserDefined, ptr, ptr, ptr, %struct.Progress, %struct.UrlState, ptr, %struct.PureInfo, %struct.curl_tlssessioninfo }
%struct.Curl_llist_node = type { ptr, ptr, ptr, ptr }
%struct.Curl_message = type { %struct.Curl_llist_node, %struct.CURLMsg }
%struct.CURLMsg = type { i32, ptr, %union.anon }
%union.anon = type { ptr }
%struct.easy_pollset = type { [5 x i32], i32, [5 x i8] }
%struct.Names = type { ptr, i32 }
%struct.SingleRequest = type <{ i64, i64, i64, i64, %struct.curltime, i32, i32, i32, i32, i64, i32, i32, i8, i8, [2 x i8], i32, ptr, ptr, %struct.bufq, i64, i64, ptr, ptr, %union.anon.0, ptr, i8, i32, [3 x i8] }>
%struct.curltime = type { i64, i32 }
%struct.bufq = type { ptr, ptr, ptr, ptr, i64, i64, i64, i32 }
%union.anon.0 = type { ptr }
%struct.UserDefined = type <{ ptr, ptr, ptr, ptr, ptr, ptr, i64, i64, i64, ptr, ptr, i64, ptr, ptr, ptr, ptr, ptr, ptr, ptr, ptr, ptr, ptr, ptr, ptr, ptr, ptr, ptr, ptr, ptr, ptr, ptr, ptr, ptr, ptr, ptr, i64, i64, i64, i64, i64, i64, i64, i64, i64, ptr, ptr, %struct.curl_mimepart, ptr, ptr, ptr, i64, %struct.ssl_config_data, %struct.ssl_config_data, ptr, i16, i8, i8, %struct.ssl_general_config, i32, i32, i32, [4 x i8], ptr, ptr, i64, i32, i8, i8, i8, i8, ptr, ptr, ptr, i32, [4 x i8], [74 x ptr], [8 x ptr], i32, i32, i32, [4 x i8], ptr, i32, [4 x i8], ptr, ptr, ptr, ptr, ptr, i32, i32, i32, i32, i32, i32, i32, i32, i64, ptr, ptr, i64, ptr, i64, ptr, ptr, ptr, ptr, i32, i16, i16, i16, i8, i8, i8, i8, i8, i8, i8, i8, i64, [6 x i8] }>
%struct.curl_mimepart = type { ptr, ptr, i32, i32, ptr, ptr, ptr, ptr, ptr, ptr, ptr, ptr, ptr, ptr, ptr, i64, %struct.mime_state, ptr, %struct.mime_encoder_state, i64 }
%struct.mime_state = type { i32, ptr, i64 }
%struct.mime_encoder_state = type { i64, i64, i64, [256 x i8] }
%struct.ssl_config_data = type { %struct.ssl_primary_config, i64, ptr, ptr, ptr, ptr, ptr, ptr, ptr, i16 }
%struct.ssl_primary_config = type { ptr, ptr, ptr, ptr, ptr, ptr, ptr, ptr, ptr, ptr, ptr, ptr, ptr, ptr, i8, i32, i8, i8 }
%struct.ssl_general_config = type { i32 }
%struct.Progress = type { i64, %struct.pgrs_dir, %struct.pgrs_dir, i64, i64, i32, i32, i64, i64, i64, i64, i64, i64, i64, i64, i64, %struct.curltime, %struct.curltime, %struct.curltime, %struct.curltime, %struct.curltime, [6 x i64], [6 x %struct.curltime], i32, i8 }
%struct.pgrs_dir = type { i64, i64, i64, %struct.pgrs_measure }
%struct.pgrs_measure = type { %struct.curltime, i64 }
%struct.UrlState = type { %struct.curltime, i64, i64, %struct.dynbuf, ptr, i64, ptr, i32, i32, i32, ptr, i32, i64, i32, ptr, %struct.digestdata, %struct.digestdata, %struct.auth, %struct.auth, %struct.Curl_async, ptr, i8, %struct.curltime, %struct.Curl_tree, %struct.Curl_llist, [15 x %struct.time_node], ptr, ptr, i64, i64, i64, i64, [32 x i8], i64, ptr, ptr, ptr, %struct.urlpieces, ptr, ptr, ptr, ptr, ptr, i64, %struct.dynbuf, %struct.Curl_llist, [2 x %struct.curl_header], ptr, i32, ptr, ptr, %struct.store_netrc, %struct.dynamically_allocated_data, i8, i8, i8, i8, i32 }
%struct.digestdata = type { ptr, ptr, ptr, ptr, ptr, ptr, i32, i8, i8 }
%struct.auth = type { i64, i64, i64, i8 }
%struct.Curl_async = type { ptr, ptr, ptr, ptr, i32, i32, i8 }
%struct.Curl_tree = type { ptr, ptr, ptr, ptr, %struct.curltime, ptr }
%struct.time_node = type { %struct.Curl_llist_node, %struct.curltime, i32 }
%struct.urlpieces = type { ptr, ptr, ptr, ptr, ptr, ptr, ptr, ptr }
%struct.dynbuf = type { ptr, i64, i64, i64 }
%struct.Curl_llist = type { ptr, ptr, ptr, i64 }
%struct.curl_header = type { ptr, ptr, i64, i64, i32, ptr }
%struct.store_netrc = type { %struct.dynbuf, ptr, i8 }
%struct.dynamically_allocated_data = type { ptr, ptr, ptr, ptr, ptr, ptr, ptr, ptr, ptr, ptr, ptr, ptr, ptr, ptr }
%struct.PureInfo = type { i32, i32, i32, i64, i64, i64, i64, i64, i64, i64, ptr, ptr, i64, i32, %struct.ip_quadruple, i32, ptr, i32, %struct.curl_certinfo, i32, i8 }
%struct.ip_quadruple = type { [46 x i8], [46 x i8], i32, i32 }
%struct.curl_certinfo = type { i32, ptr }
%struct.curl_tlssessioninfo = type { i32, ptr }
%struct.curl_trc_feat = type { ptr, i32 }
%struct.url_conn_match = type { ptr, ptr, ptr, i8 }

@.str.80 = private unnamed_addr constant [62 x i8] c"Found pending candidate for reuse and CURLOPT_PIPEWAIT is set\00", align 1

; Function Attrs: nounwind uwtable
define internal zeroext i1 @url_match_result(i1 noundef zeroext %0, ptr noundef %1) #0 {
  %3 = alloca i1, align 1
  %4 = alloca i8, align 1
  %5 = alloca ptr, align 8
  %6 = alloca ptr, align 8
  %7 = alloca i32, align 4
  %8 = zext i1 %0 to i8
  store i8 %8, ptr %4, align 1, !tbaa !210
  store ptr %1, ptr %5, align 8, !tbaa !10
  call void @llvm.lifetime.start.p0(i64 8, ptr %6) #8
  %9 = load ptr, ptr %5, align 8, !tbaa !10
  store ptr %9, ptr %6, align 8, !tbaa !344
  %10 = load ptr, ptr %6, align 8, !tbaa !344
  %11 = getelementptr inbounds nuw %struct.url_conn_match, ptr %10, i32 0, i32 0
  %12 = load ptr, ptr %11, align 8, !tbaa !321
  %13 = icmp ne ptr %12, null
  br i1 %13, label %14, label %21

14:                                               ; preds = %2
  %15 = load ptr, ptr %6, align 8, !tbaa !344
  %16 = getelementptr inbounds nuw %struct.url_conn_match, ptr %15, i32 0, i32 1
  %17 = load ptr, ptr %16, align 8, !tbaa !316
  %18 = load ptr, ptr %6, align 8, !tbaa !344
  %19 = getelementptr inbounds nuw %struct.url_conn_match, ptr %18, i32 0, i32 0
  %20 = load ptr, ptr %19, align 8, !tbaa !321
  call void @Curl_attach_connection(ptr noundef %17, ptr noundef %20)
  store i1 true, ptr %3, align 1
  store i32 1, ptr %7, align 4
  br label %116

21:                                               ; preds = %2
  %22 = load ptr, ptr %6, align 8, !tbaa !344
  %23 = getelementptr inbounds nuw %struct.url_conn_match, ptr %22, i32 0, i32 3
  %24 = load i8, ptr %23, align 8
  %25 = lshr i8 %24, 6
  %26 = and i8 %25, 1
  %27 = zext i8 %26 to i32
  %28 = icmp ne i32 %27, 0
  br i1 %28, label %29, label %42

29:                                               ; preds = %21
  %30 = load ptr, ptr %6, align 8, !tbaa !344
  %31 = getelementptr inbounds nuw %struct.url_conn_match, ptr %30, i32 0, i32 3
  %32 = load i8, ptr %31, align 8
  %33 = lshr i8 %32, 7
  %34 = zext i8 %33 to i32
  %35 = icmp ne i32 %34, 0
  br i1 %35, label %42, label %36

36:                                               ; preds = %29
  %37 = load ptr, ptr %6, align 8, !tbaa !344
  %38 = getelementptr inbounds nuw %struct.url_conn_match, ptr %37, i32 0, i32 3
  %39 = load i8, ptr %38, align 8
  %40 = and i8 %39, -9
  %41 = or i8 %40, 0
  store i8 %41, ptr %38, align 8
  br label %109

42:                                               ; preds = %29, %21
  %43 = load ptr, ptr %6, align 8, !tbaa !344
  %44 = getelementptr inbounds nuw %struct.url_conn_match, ptr %43, i32 0, i32 3
  %45 = load i8, ptr %44, align 8
  %46 = lshr i8 %45, 5
  %47 = and i8 %46, 1
  %48 = zext i8 %47 to i32
  %49 = icmp ne i32 %48, 0
  br i1 %49, label %50, label %108

50:                                               ; preds = %42
  %51 = load ptr, ptr %6, align 8, !tbaa !344
  %52 = getelementptr inbounds nuw %struct.url_conn_match, ptr %51, i32 0, i32 1
  %53 = load ptr, ptr %52, align 8, !tbaa !316
  %54 = getelementptr inbounds nuw %struct.Curl_easy, ptr %53, i32 0, i32 16
  %55 = getelementptr inbounds nuw %struct.UserDefined, ptr %54, i32 0, i32 119
  %56 = load i64, ptr %55, align 2
  %57 = lshr i64 %56, 45
  %58 = and i64 %57, 1
  %59 = trunc i64 %58 to i32
  %60 = icmp ne i32 %59, 0
  br i1 %60, label %61, label %108

61:                                               ; preds = %50
  br label %62

62:                                               ; preds = %61
  %63 = load ptr, ptr %6, align 8, !tbaa !344
  %64 = getelementptr inbounds nuw %struct.url_conn_match, ptr %63, i32 0, i32 1
  %65 = load ptr, ptr %64, align 8, !tbaa !316
  %66 = icmp ne ptr %65, null
  br i1 %66, label %67, label %100

67:                                               ; preds = %62
  %68 = load ptr, ptr %6, align 8, !tbaa !344
  %69 = getelementptr inbounds nuw %struct.url_conn_match, ptr %68, i32 0, i32 1
  %70 = load ptr, ptr %69, align 8, !tbaa !316
  %71 = getelementptr inbounds nuw %struct.Curl_easy, ptr %70, i32 0, i32 16
  %72 = getelementptr inbounds nuw %struct.UserDefined, ptr %71, i32 0, i32 119
  %73 = load i64, ptr %72, align 2
  %74 = lshr i64 %73, 31
  %75 = and i64 %74, 1
  %76 = trunc i64 %75 to i32
  %77 = icmp ne i32 %76, 0
  br i1 %77, label %78, label %100

78:                                               ; preds = %67
  %79 = load ptr, ptr %6, align 8, !tbaa !344
  %80 = getelementptr inbounds nuw %struct.url_conn_match, ptr %79, i32 0, i32 1
  %81 = load ptr, ptr %80, align 8, !tbaa !316
  %82 = getelementptr inbounds nuw %struct.Curl_easy, ptr %81, i32 0, i32 21
  %83 = getelementptr inbounds nuw %struct.UrlState, ptr %82, i32 0, i32 50
  %84 = load ptr, ptr %83, align 8, !tbaa !221
  %85 = icmp ne ptr %84, null
  br i1 %85, label %86, label %96

86:                                               ; preds = %78
  %87 = load ptr, ptr %6, align 8, !tbaa !344
  %88 = getelementptr inbounds nuw %struct.url_conn_match, ptr %87, i32 0, i32 1
  %89 = load ptr, ptr %88, align 8, !tbaa !316
  %90 = getelementptr inbounds nuw %struct.Curl_easy, ptr %89, i32 0, i32 21
  %91 = getelementptr inbounds nuw %struct.UrlState, ptr %90, i32 0, i32 50
  %92 = load ptr, ptr %91, align 8, !tbaa !221
  %93 = getelementptr inbounds nuw %struct.curl_trc_feat, ptr %92, i32 0, i32 1
  %94 = load i32, ptr %93, align 8, !tbaa !222
  %95 = icmp sge i32 %94, 1
  br i1 %95, label %96, label %100

96:                                               ; preds = %86, %78
  %97 = load ptr, ptr %6, align 8, !tbaa !344
  %98 = getelementptr inbounds nuw %struct.url_conn_match, ptr %97, i32 0, i32 1
  %99 = load ptr, ptr %98, align 8, !tbaa !316
  call void (ptr, ptr, ...) @Curl_infof(ptr noundef %99, ptr noundef @.str.80)
  br label %100

100:                                              ; preds = %96, %86, %67, %62
  br label %101

101:                                              ; preds = %100
  br label %102

102:                                              ; preds = %101
  %103 = load ptr, ptr %6, align 8, !tbaa !344
  %104 = getelementptr inbounds nuw %struct.url_conn_match, ptr %103, i32 0, i32 3
  %105 = load i8, ptr %104, align 8
  %106 = and i8 %105, -9
  %107 = or i8 %106, 8
  store i8 %107, ptr %104, align 8
  br label %108

108:                                              ; preds = %102, %50, %42
  br label %109

109:                                              ; preds = %108, %36
  br label %110

110:                                              ; preds = %109
  %111 = load ptr, ptr %6, align 8, !tbaa !344
  %112 = getelementptr inbounds nuw %struct.url_conn_match, ptr %111, i32 0, i32 3
  %113 = load i8, ptr %112, align 8
  %114 = and i8 %113, -17
  %115 = or i8 %114, 0
  store i8 %115, ptr %112, align 8
  store i1 false, ptr %3, align 1
  store i32 1, ptr %7, align 4
  br label %116

116:                                              ; preds = %110, %14
  call void @llvm.lifetime.end.p0(i64 8, ptr %6) #8
  %117 = load i1, ptr %3, align 1
  ret i1 %117
}