; Function Attrs: nounwind uwtable
define internal noundef zeroext i1 @url_match_result(i1 zeroext %0, ptr noundef captures(none) %1) #0 {
  %3 = load ptr, ptr %1, align 8, !tbaa !293
  %.not = icmp ne ptr %3, null
  br i1 %.not, label %4, label %7

4:                                                ; preds = %2
  %5 = getelementptr inbounds nuw i8, ptr %1, i64 8
  %6 = load ptr, ptr %5, align 8, !tbaa !288
  tail call void @Curl_attach_connection(ptr noundef %6, ptr noundef nonnull %3) #11
  br label %37

7:                                                ; preds = %2
  %8 = getelementptr inbounds nuw i8, ptr %1, i64 24
  %9 = load i8, ptr %8, align 8
  %10 = and i8 %9, -64
  %or.cond = icmp eq i8 %10, 64
  br i1 %or.cond, label %11, label %13

11:                                               ; preds = %7
  %12 = and i8 %9, 119
  br label %34

13:                                               ; preds = %7
  %14 = and i8 %9, 32
  %.not22 = icmp eq i8 %14, 0
  br i1 %.not22, label %34, label %15

15:                                               ; preds = %13
  %16 = getelementptr inbounds nuw i8, ptr %1, i64 8
  %17 = load ptr, ptr %16, align 8, !tbaa !288
  %18 = getelementptr inbounds nuw i8, ptr %17, i64 2658
  %19 = load i64, ptr %18, align 2
  %20 = and i64 %19, 35184372088832
  %.not23 = icmp eq i64 %20, 0
  br i1 %.not23, label %34, label %21

21:                                               ; preds = %15
  %22 = and i64 %19, 2147483648
  %.not25 = icmp eq i64 %22, 0
  br i1 %.not25, label %31, label %23

23:                                               ; preds = %21
  %24 = getelementptr inbounds nuw i8, ptr %17, i64 4864
  %25 = load ptr, ptr %24, align 8, !tbaa !196
  %.not26 = icmp eq ptr %25, null
  br i1 %.not26, label %30, label %26

26:                                               ; preds = %23
  %27 = getelementptr inbounds nuw i8, ptr %25, i64 8
  %28 = load i32, ptr %27, align 8, !tbaa !197
  %29 = icmp sgt i32 %28, 0
  br i1 %29, label %30, label %31

30:                                               ; preds = %26, %23
  tail call void (ptr, ptr, ...) @Curl_infof(ptr noundef nonnull %17, ptr noundef nonnull @.str.80) #11
  %.pre = load i8, ptr %8, align 8
  br label %31

31:                                               ; preds = %30, %26, %21
  %32 = phi i8 [ %.pre, %30 ], [ %9, %26 ], [ %9, %21 ]
  %33 = or i8 %32, 8
  br label %34

34:                                               ; preds = %11, %31, %15, %13
  %35 = phi i8 [ %12, %11 ], [ %33, %31 ], [ %9, %15 ], [ %9, %13 ]
  %36 = and i8 %35, -17
  store i8 %36, ptr %8, align 8
  br label %37

37:                                               ; preds = %34, %4
  ret i1 %.not
}